target datalayout = "e-m:e-p270:32:32-p271:32:32-p272:64:64-i64:64-i128:128-f80:128-n8:16:32:64-S128"
target triple = "x86_64-pc-linux-gnu"

%struct.stbir__contributors = type { i32, i32 }
%struct.__mm_storel_epi64_struct = type { i64 }
%struct.__loadu_ps = type { <4 x float> }
%struct.__storeu_ps = type { <4 x float> }
%struct.__mm_load_ss_struct = type { float }
%struct.__mm_store_ss_struct = type { float }

; Function Attrs: alwaysinline nounwind uwtable
define internal void @_mm_store_ss(ptr noundef %0, <4 x float> noundef %1) #13 {
  %3 = alloca ptr, align 8
  %4 = alloca <4 x float>, align 16
  store ptr %0, ptr %3, align 8
  store <4 x float> %1, ptr %4, align 16
  %5 = load <4 x float>, ptr %4, align 16
  %6 = extractelement <4 x float> %5, i32 0
  %7 = load ptr, ptr %3, align 8
  %8 = getelementptr inbounds nuw %struct.__mm_store_ss_struct, ptr %7, i32 0, i32 0
  store float %6, ptr %8, align 1
  ret void
}

; Function Attrs: alwaysinline nounwind uwtable
define internal void @_mm_storel_epi64(ptr noundef %0, <2 x i64> noundef %1) #13 {
  %3 = alloca ptr, align 8
  %4 = alloca <2 x i64>, align 16
  store ptr %0, ptr %3, align 8
  store <2 x i64> %1, ptr %4, align 16
  %5 = load <2 x i64>, ptr %4, align 16
  %6 = extractelement <2 x i64> %5, i32 0
  %7 = load ptr, ptr %3, align 8
  %8 = getelementptr inbounds nuw %struct.__mm_storel_epi64_struct, ptr %7, i32 0, i32 0
  store i64 %6, ptr %8, align 1
  ret void
}

; Function Attrs: alwaysinline nounwind uwtable
define internal void @_mm_storeu_ps(ptr noundef %0, <4 x float> noundef %1) #13 {
  %3 = alloca ptr, align 8
  %4 = alloca <4 x float>, align 16
  store ptr %0, ptr %3, align 8
  store <4 x float> %1, ptr %4, align 16
  %5 = load <4 x float>, ptr %4, align 16
  %6 = load ptr, ptr %3, align 8
  %7 = getelementptr inbounds nuw %struct.__storeu_ps, ptr %6, i32 0, i32 0
  store <4 x float> %5, ptr %7, align 1
  ret void
}

; Function Attrs: alwaysinline nounwind uwtable
define internal <4 x float> @_mm_load_ss(ptr noundef %0) #13 {
  %2 = alloca ptr, align 8
  %3 = alloca float, align 4
  %4 = alloca <4 x float>, align 16
  store ptr %0, ptr %2, align 8
  call void @llvm.lifetime.start.p0(i64 4, ptr %3) #19
  %5 = load ptr, ptr %2, align 8
  %6 = getelementptr inbounds nuw %struct.__mm_load_ss_struct, ptr %5, i32 0, i32 0
  %7 = load float, ptr %6, align 1
  store float %7, ptr %3, align 4
  %8 = load float, ptr %3, align 4
  %9 = insertelement <4 x float> poison, float %8, i32 0
  %10 = insertelement <4 x float> %9, float 0.000000e+00, i32 1
  %11 = insertelement <4 x float> %10, float 0.000000e+00, i32 2
  %12 = insertelement <4 x float> %11, float 0.000000e+00, i32 3
  store <4 x float> %12, ptr %4, align 16
  %13 = load <4 x float>, ptr %4, align 16
  call void @llvm.lifetime.end.p0(i64 4, ptr %3) #19
  ret <4 x float> %13
}

; Function Attrs: alwaysinline nounwind uwtable
define internal <4 x float> @_mm_add_ps(<4 x float> noundef %0, <4 x float> noundef %1) #13 {
  %3 = alloca <4 x float>, align 16
  %4 = alloca <4 x float>, align 16
  store <4 x float> %0, ptr %3, align 16
  store <4 x float> %1, ptr %4, align 16
  %5 = load <4 x float>, ptr %3, align 16
  %6 = load <4 x float>, ptr %4, align 16
  %7 = fadd <4 x float> %5, %6
  ret <4 x float> %7
}

; Function Attrs: alwaysinline nounwind uwtable
define internal <4 x float> @_mm_mul_ps(<4 x float> noundef %0, <4 x float> noundef %1) #13 {
  %3 = alloca <4 x float>, align 16
  %4 = alloca <4 x float>, align 16
  store <4 x float> %0, ptr %3, align 16
  store <4 x float> %1, ptr %4, align 16
  %5 = load <4 x float>, ptr %3, align 16
  %6 = load <4 x float>, ptr %4, align 16
  %7 = fmul <4 x float> %5, %6
  ret <4 x float> %7
}

; Function Attrs: alwaysinline nounwind uwtable
define internal <4 x float> @_mm_castsi128_ps(<2 x i64> noundef %0) #13 {
  %2 = alloca <2 x i64>, align 16
  store <2 x i64> %0, ptr %2, align 16
  %3 = load <2 x i64>, ptr %2, align 16
  %4 = bitcast <2 x i64> %3 to <4 x float>
  ret <4 x float> %4
}

; Function Attrs: alwaysinline nounwind uwtable
define internal <2 x i64> @_mm_castps_si128(<4 x float> noundef %0) #13 {
  %2 = alloca <4 x float>, align 16
  store <4 x float> %0, ptr %2, align 16
  %3 = load <4 x float>, ptr %2, align 16
  %4 = bitcast <4 x float> %3 to <2 x i64>
  ret <2 x i64> %4
}

; Function Attrs: alwaysinline nounwind uwtable
define internal <4 x float> @_mm_loadu_ps(ptr noundef %0) #13 {
  %2 = alloca ptr, align 8
  store ptr %0, ptr %2, align 8
  %3 = load ptr, ptr %2, align 8
  %4 = getelementptr inbounds nuw %struct.__loadu_ps, ptr %3, i32 0, i32 0
  %5 = load <4 x float>, ptr %4, align 1
  ret <4 x float> %5
}

; Function Attrs: nounwind uwtable
define internal void @stbir__horizontal_gather_3_channels_with_7_coeffs(ptr noundef %0, i32 noundef %1, ptr noundef %2, ptr noundef %3, ptr noundef %4, i32 noundef %5) #12 {
  %7 = alloca ptr, align 8
  %8 = alloca i32, align 4
  %9 = alloca ptr, align 8
  %10 = alloca ptr, align 8
  %11 = alloca ptr, align 8
  %12 = alloca i32, align 4
  %13 = alloca ptr, align 8
  %14 = alloca ptr, align 8
  %15 = alloca ptr, align 8
  %16 = alloca ptr, align 8
  %17 = alloca <4 x float>, align 16
  %18 = alloca <4 x float>, align 16
  %19 = alloca <4 x float>, align 16
  %20 = alloca <4 x float>, align 16
  %21 = alloca <4 x float>, align 16
  %22 = alloca <4 x float>, align 16
  %23 = alloca i32, align 4
  store ptr %0, ptr %7, align 8
  store i32 %1, ptr %8, align 4
  store ptr %2, ptr %9, align 8
  store ptr %3, ptr %10, align 8
  store ptr %4, ptr %11, align 8
  store i32 %5, ptr %12, align 4
  call void @llvm.lifetime.start.p0(i64 8, ptr %13) #19
  %24 = load ptr, ptr %7, align 8
  %25 = load i32, ptr %8, align 4
  %26 = mul i32 %25, 3
  %27 = zext i32 %26 to i64
  %28 = getelementptr inbounds nuw float, ptr %24, i64 %27
  store ptr %28, ptr %13, align 8
  call void @llvm.lifetime.start.p0(i64 8, ptr %14) #19
  %29 = load ptr, ptr %7, align 8
  store ptr %29, ptr %14, align 8
  br label %30

30:                                               ; preds = %183, %6
  call void @llvm.lifetime.start.p0(i64 8, ptr %15) #19
  %31 = load ptr, ptr %9, align 8
  %32 = load ptr, ptr %10, align 8
  %33 = getelementptr inbounds nuw %struct.stbir__contributors, ptr %32, i32 0, i32 0
  %34 = load i32, ptr %33, align 4
  %35 = mul nsw i32 %34, 3
  %36 = sext i32 %35 to i64
  %37 = getelementptr inbounds float, ptr %31, i64 %36
  store ptr %37, ptr %15, align 8
  call void @llvm.lifetime.start.p0(i64 8, ptr %16) #19
  %38 = load ptr, ptr %11, align 8
  store ptr %38, ptr %16, align 8
  call void @llvm.lifetime.start.p0(i64 16, ptr %17) #19
  call void @llvm.lifetime.start.p0(i64 16, ptr %18) #19
  call void @llvm.lifetime.start.p0(i64 16, ptr %19) #19
  call void @llvm.lifetime.start.p0(i64 16, ptr %20) #19
  call void @llvm.lifetime.start.p0(i64 16, ptr %21) #19
  %39 = load ptr, ptr %15, align 8
  call void asm sideeffect "", "r,~{dirflag},~{fpsr},~{flags}"(ptr %39) #19, !srcloc !572
  %40 = load ptr, ptr %16, align 8
  %41 = call <4 x float> @_mm_loadu_ps(ptr noundef %40)
  store <4 x float> %41, ptr %21, align 16
  %42 = load <4 x float>, ptr %21, align 16
  %43 = call <2 x i64> @_mm_castps_si128(<4 x float> noundef %42)
  %44 = bitcast <2 x i64> %43 to <4 x i32>
  %45 = shufflevector <4 x i32> %44, <4 x i32> poison, <4 x i32> <i32 0, i32 0, i32 0, i32 1>
  %46 = bitcast <4 x i32> %45 to <2 x i64>
  %47 = call <4 x float> @_mm_castsi128_ps(<2 x i64> noundef %46)
  store <4 x float> %47, ptr %20, align 16
  %48 = load <4 x float>, ptr %20, align 16
  %49 = load ptr, ptr %15, align 8
  %50 = call <4 x float> @_mm_loadu_ps(ptr noundef %49)
  %51 = call <4 x float> @_mm_mul_ps(<4 x float> noundef %48, <4 x float> noundef %50)
  store <4 x float> %51, ptr %17, align 16
  %52 = load <4 x float>, ptr %21, align 16
  %53 = call <2 x i64> @_mm_castps_si128(<4 x float> noundef %52)
  %54 = bitcast <2 x i64> %53 to <4 x i32>
  %55 = shufflevector <4 x i32> %54, <4 x i32> poison, <4 x i32> <i32 1, i32 1, i32 2, i32 2>
  %56 = bitcast <4 x i32> %55 to <2 x i64>
  %57 = call <4 x float> @_mm_castsi128_ps(<2 x i64> noundef %56)
  store <4 x float> %57, ptr %20, align 16
  %58 = load <4 x float>, ptr %20, align 16
  %59 = load ptr, ptr %15, align 8
  %60 = getelementptr inbounds float, ptr %59, i64 4
  %61 = call <4 x float> @_mm_loadu_ps(ptr noundef %60)
  %62 = call <4 x float> @_mm_mul_ps(<4 x float> noundef %58, <4 x float> noundef %61)
  store <4 x float> %62, ptr %18, align 16
  %63 = load <4 x float>, ptr %21, align 16
  %64 = call <2 x i64> @_mm_castps_si128(<4 x float> noundef %63)
  %65 = bitcast <2 x i64> %64 to <4 x i32>
  %66 = shufflevector <4 x i32> %65, <4 x i32> poison, <4 x i32> <i32 2, i32 3, i32 3, i32 3>
  %67 = bitcast <4 x i32> %66 to <2 x i64>
  %68 = call <4 x float> @_mm_castsi128_ps(<2 x i64> noundef %67)
  store <4 x float> %68, ptr %20, align 16
  %69 = load <4 x float>, ptr %20, align 16
  %70 = load ptr, ptr %15, align 8
  %71 = getelementptr inbounds float, ptr %70, i64 8
  %72 = call <4 x float> @_mm_loadu_ps(ptr noundef %71)
  %73 = call <4 x float> @_mm_mul_ps(<4 x float> noundef %69, <4 x float> noundef %72)
  store <4 x float> %73, ptr %19, align 16
  call void @llvm.lifetime.start.p0(i64 16, ptr %22) #19
  %74 = load ptr, ptr %15, align 8
  call void asm sideeffect "", "r,~{dirflag},~{fpsr},~{flags}"(ptr %74) #19, !srcloc !573
  %75 = load ptr, ptr %16, align 8
  %76 = getelementptr inbounds float, ptr %75, i64 4
  %77 = call <4 x float> @_mm_loadu_ps(ptr noundef %76)
  store <4 x float> %77, ptr %21, align 16
  %78 = load <4 x float>, ptr %21, align 16
  %79 = call <2 x i64> @_mm_castps_si128(<4 x float> noundef %78)
  %80 = bitcast <2 x i64> %79 to <4 x i32>
  %81 = shufflevector <4 x i32> %80, <4 x i32> poison, <4 x i32> <i32 0, i32 0, i32 0, i32 1>
  %82 = bitcast <4 x i32> %81 to <2 x i64>
  %83 = call <4 x float> @_mm_castsi128_ps(<2 x i64> noundef %82)
  store <4 x float> %83, ptr %20, align 16
  %84 = load <4 x float>, ptr %17, align 16
  %85 = load <4 x float>, ptr %20, align 16
  %86 = load ptr, ptr %15, align 8
  %87 = getelementptr inbounds float, ptr %86, i64 12
  %88 = call <4 x float> @_mm_loadu_ps(ptr noundef %87)
  %89 = call <4 x float> @_mm_mul_ps(<4 x float> noundef %85, <4 x float> noundef %88)
  %90 = call <4 x float> @_mm_add_ps(<4 x float> noundef %84, <4 x float> noundef %89)
  store <4 x float> %90, ptr %17, align 16
  %91 = load <4 x float>, ptr %21, align 16
  %92 = call <2 x i64> @_mm_castps_si128(<4 x float> noundef %91)
  %93 = bitcast <2 x i64> %92 to <4 x i32>
  %94 = shufflevector <4 x i32> %93, <4 x i32> poison, <4 x i32> <i32 1, i32 1, i32 2, i32 2>
  %95 = bitcast <4 x i32> %94 to <2 x i64>
  %96 = call <4 x float> @_mm_castsi128_ps(<2 x i64> noundef %95)
  store <4 x float> %96, ptr %20, align 16
  %97 = load <4 x float>, ptr %18, align 16
  %98 = load <4 x float>, ptr %20, align 16
  %99 = load ptr, ptr %15, align 8
  %100 = getelementptr inbounds float, ptr %99, i64 12
  %101 = getelementptr inbounds float, ptr %100, i64 4
  %102 = call <4 x float> @_mm_loadu_ps(ptr noundef %101)
  %103 = call <4 x float> @_mm_mul_ps(<4 x float> noundef %98, <4 x float> noundef %102)
  %104 = call <4 x float> @_mm_add_ps(<4 x float> noundef %97, <4 x float> noundef %103)
  store <4 x float> %104, ptr %18, align 16
  %105 = load <4 x float>, ptr %21, align 16
  %106 = call <2 x i64> @_mm_castps_si128(<4 x float> noundef %105)
  %107 = bitcast <2 x i64> %106 to <4 x i32>
  %108 = shufflevector <4 x i32> %107, <4 x i32> poison, <4 x i32> <i32 2, i32 2, i32 2, i32 2>
  %109 = bitcast <4 x i32> %108 to <2 x i64>
  %110 = call <4 x float> @_mm_castsi128_ps(<2 x i64> noundef %109)
  store <4 x float> %110, ptr %20, align 16
  %111 = load ptr, ptr %15, align 8
  %112 = getelementptr inbounds float, ptr %111, i64 12
  %113 = getelementptr inbounds float, ptr %112, i64 8
  %114 = call <4 x float> @_mm_load_ss(ptr noundef %113)
  store <4 x float> %114, ptr %22, align 16
  %115 = load <4 x float>, ptr %19, align 16
  %116 = load <4 x float>, ptr %20, align 16
  %117 = load <4 x float>, ptr %22, align 16
  %118 = call <4 x float> @_mm_mul_ps(<4 x float> noundef %116, <4 x float> noundef %117)
  %119 = call <4 x float> @_mm_add_ps(<4 x float> noundef %115, <4 x float> noundef %118)
  store <4 x float> %119, ptr %19, align 16
  call void @llvm.lifetime.end.p0(i64 16, ptr %22) #19
  %120 = load <4 x float>, ptr %18, align 16
  %121 = load <4 x float>, ptr %17, align 16
  %122 = shufflevector <4 x float> %120, <4 x float> %121, <4 x i32> <i32 0, i32 1, i32 6, i32 7>
  %123 = call <2 x i64> @_mm_castps_si128(<4 x float> noundef %122)
  %124 = bitcast <2 x i64> %123 to <4 x i32>
  %125 = shufflevector <4 x i32> %124, <4 x i32> poison, <4 x i32> <i32 3, i32 0, i32 1, i32 2>
  %126 = bitcast <4 x i32> %125 to <2 x i64>
  %127 = call <4 x float> @_mm_castsi128_ps(<2 x i64> noundef %126)
  store <4 x float> %127, ptr %20, align 16
  %128 = load <4 x float>, ptr %19, align 16
  %129 = load <4 x float>, ptr %18, align 16
  %130 = shufflevector <4 x float> %128, <4 x float> %129, <4 x i32> <i32 0, i32 1, i32 6, i32 7>
  %131 = call <2 x i64> @_mm_castps_si128(<4 x float> noundef %130)
  %132 = bitcast <2 x i64> %131 to <4 x i32>
  %133 = shufflevector <4 x i32> %132, <4 x i32> poison, <4 x i32> <i32 2, i32 3, i32 0, i32 1>
  %134 = bitcast <4 x i32> %133 to <2 x i64>
  %135 = call <4 x float> @_mm_castsi128_ps(<2 x i64> noundef %134)
  store <4 x float> %135, ptr %21, align 16
  %136 = load <4 x float>, ptr %19, align 16
  %137 = call <2 x i64> @_mm_castps_si128(<4 x float> noundef %136)
  %138 = bitcast <2 x i64> %137 to <4 x i32>
  %139 = shufflevector <4 x i32> %138, <4 x i32> poison, <4 x i32> <i32 1, i32 2, i32 3, i32 0>
  %140 = bitcast <4 x i32> %139 to <2 x i64>
  %141 = call <4 x float> @_mm_castsi128_ps(<2 x i64> noundef %140)
  store <4 x float> %141, ptr %19, align 16
  %142 = load <4 x float>, ptr %17, align 16
  %143 = load <4 x float>, ptr %21, align 16
  %144 = call <4 x float> @_mm_add_ps(<4 x float> noundef %142, <4 x float> noundef %143)
  store <4 x float> %144, ptr %17, align 16
  %145 = load <4 x float>, ptr %20, align 16
  %146 = load <4 x float>, ptr %19, align 16
  %147 = call <4 x float> @_mm_add_ps(<4 x float> noundef %145, <4 x float> noundef %146)
  store <4 x float> %147, ptr %20, align 16
  %148 = load <4 x float>, ptr %17, align 16
  %149 = load <4 x float>, ptr %20, align 16
  %150 = call <4 x float> @_mm_add_ps(<4 x float> noundef %148, <4 x float> noundef %149)
  store <4 x float> %150, ptr %17, align 16
  %151 = load i32, ptr %12, align 4
  %152 = load ptr, ptr %11, align 8
  %153 = sext i32 %151 to i64
  %154 = getelementptr inbounds float, ptr %152, i64 %153
  store ptr %154, ptr %11, align 8
  %155 = load ptr, ptr %10, align 8
  %156 = getelementptr inbounds nuw %struct.stbir__contributors, ptr %155, i32 1
  store ptr %156, ptr %10, align 8
  %157 = load ptr, ptr %14, align 8
  %158 = getelementptr inbounds float, ptr %157, i64 3
  store ptr %158, ptr %14, align 8
  %159 = load ptr, ptr %14, align 8
  %160 = load ptr, ptr %13, align 8
  %161 = icmp ult ptr %159, %160
  br i1 %161, label %162, label %166

162:                                              ; preds = %30
  %163 = load ptr, ptr %14, align 8
  %164 = getelementptr inbounds float, ptr %163, i64 -3
  %165 = load <4 x float>, ptr %17, align 16
  call void @_mm_storeu_ps(ptr noundef %164, <4 x float> noundef %165)
  store i32 3, ptr %23, align 4
  br label %181

166:                                              ; preds = %30
  %167 = load <4 x float>, ptr %17, align 16
  %168 = call <2 x i64> @_mm_castps_si128(<4 x float> noundef %167)
  %169 = bitcast <2 x i64> %168 to <4 x i32>
  %170 = shufflevector <4 x i32> %169, <4 x i32> poison, <4 x i32> <i32 2, i32 3, i32 0, i32 1>
  %171 = bitcast <4 x i32> %170 to <2 x i64>
  %172 = call <4 x float> @_mm_castsi128_ps(<2 x i64> noundef %171)
  store <4 x float> %172, ptr %18, align 16
  %173 = load ptr, ptr %14, align 8
  %174 = getelementptr inbounds float, ptr %173, i64 -3
  %175 = load <4 x float>, ptr %17, align 16
  %176 = call <2 x i64> @_mm_castps_si128(<4 x float> noundef %175)
  call void @_mm_storel_epi64(ptr noundef %174, <2 x i64> noundef %176)
  %177 = load ptr, ptr %14, align 8
  %178 = getelementptr inbounds float, ptr %177, i64 2
  %179 = getelementptr inbounds float, ptr %178, i64 -3
  %180 = load <4 x float>, ptr %18, align 16
  call void @_mm_store_ss(ptr noundef %179, <4 x float> noundef %180)
  store i32 2, ptr %23, align 4
  br label %181

181:                                              ; preds = %166, %162
  call void @llvm.lifetime.end.p0(i64 16, ptr %21) #19
  call void @llvm.lifetime.end.p0(i64 16, ptr %20) #19
  call void @llvm.lifetime.end.p0(i64 16, ptr %19) #19
  call void @llvm.lifetime.end.p0(i64 16, ptr %18) #19
  call void @llvm.lifetime.end.p0(i64 16, ptr %17) #19
  call void @llvm.lifetime.end.p0(i64 8, ptr %16) #19
  call void @llvm.lifetime.end.p0(i64 8, ptr %15) #19
  %182 = load i32, ptr %23, align 4
  switch i32 %182, label %188 [
    i32 3, label %183
    i32 2, label %187
  ]

183:                                              ; preds = %181
  %184 = load ptr, ptr %14, align 8
  %185 = load ptr, ptr %13, align 8
  %186 = icmp ult ptr %184, %185
  br i1 %186, label %30, label %187, !llvm.loop !574

187:                                              ; preds = %183, %181
  call void @llvm.lifetime.end.p0(i64 8, ptr %14) #19
  call void @llvm.lifetime.end.p0(i64 8, ptr %13) #19
  ret void

188:                                              ; preds = %181
  unreachable
}