; Function Attrs: nounwind uwtable
define internal void @stbir__horizontal_gather_3_channels_with_7_coeffs(ptr noundef writeonly captures(address) %0, i32 noundef %1, ptr noundef %2, ptr noundef readonly captures(none) %3, ptr noundef readonly captures(none) %4, i32 noundef %5) #22 {
  %7 = mul i32 %1, 3
  %8 = zext i32 %7 to i64
  %9 = getelementptr inbounds nuw float, ptr %0, i64 %8
  %10 = sext i32 %5 to i64
  br label %11

11:                                               ; preds = %58, %6
  %.060 = phi ptr [ %0, %6 ], [ %52, %58 ]
  %.059 = phi ptr [ %4, %6 ], [ %60, %58 ]
  %.058 = phi ptr [ %3, %6 ], [ %59, %58 ]
  %12 = load i32, ptr %.058, align 4
  %13 = mul nsw i32 %12, 3
  %14 = sext i32 %13 to i64
  %15 = getelementptr inbounds float, ptr %2, i64 %14
  tail call void asm sideeffect "", "r,~{dirflag},~{fpsr},~{flags}"(ptr %15) #54, !srcloc !529
  %16 = load <4 x float>, ptr %.059, align 1
  %17 = shufflevector <4 x float> %16, <4 x float> poison, <4 x i32> <i32 0, i32 0, i32 0, i32 1>
  %18 = load <4 x float>, ptr %15, align 1
  %19 = fmul <4 x float> %18, %17
  %20 = shufflevector <4 x float> %16, <4 x float> poison, <4 x i32> <i32 1, i32 1, i32 2, i32 2>
  %21 = getelementptr inbounds nuw i8, ptr %15, i64 16
  %22 = load <4 x float>, ptr %21, align 1
  %23 = fmul <4 x float> %20, %22
  %24 = shufflevector <4 x float> %16, <4 x float> poison, <4 x i32> <i32 2, i32 3, i32 3, i32 3>
  %25 = getelementptr inbounds nuw i8, ptr %15, i64 32
  %26 = load <4 x float>, ptr %25, align 1
  %27 = fmul <4 x float> %24, %26
  tail call void asm sideeffect "", "r,~{dirflag},~{fpsr},~{flags}"(ptr nonnull %15) #54, !srcloc !530
  %28 = getelementptr inbounds nuw i8, ptr %.059, i64 16
  %29 = load <4 x float>, ptr %28, align 1
  %30 = shufflevector <4 x float> %29, <4 x float> poison, <4 x i32> <i32 0, i32 0, i32 0, i32 1>
  %31 = getelementptr inbounds nuw i8, ptr %15, i64 48
  %32 = load <4 x float>, ptr %31, align 1
  %33 = fmul <4 x float> %32, %30
  %34 = fadd <4 x float> %19, %33
  %35 = shufflevector <4 x float> %29, <4 x float> poison, <4 x i32> <i32 1, i32 1, i32 2, i32 2>
  %36 = getelementptr inbounds nuw i8, ptr %15, i64 64
  %37 = load <4 x float>, ptr %36, align 1
  %38 = fmul <4 x float> %35, %37
  %39 = fadd <4 x float> %23, %38
  %40 = shufflevector <4 x float> %29, <4 x float> poison, <4 x i32> <i32 2, i32 2, i32 2, i32 2>
  %41 = getelementptr inbounds nuw i8, ptr %15, i64 80
  %42 = load float, ptr %41, align 1
  %43 = insertelement <4 x float> <float poison, float 0.000000e+00, float 0.000000e+00, float 0.000000e+00>, float %42, i64 0
  %44 = fmul <4 x float> %40, %43
  %45 = fadd <4 x float> %27, %44
  %46 = shufflevector <4 x float> %34, <4 x float> %39, <4 x i32> <i32 3, i32 4, i32 5, i32 2>
  %47 = shufflevector <4 x float> %39, <4 x float> %45, <4 x i32> <i32 2, i32 3, i32 4, i32 5>
  %48 = shufflevector <4 x float> %45, <4 x float> poison, <4 x i32> <i32 1, i32 2, i32 3, i32 0>
  %49 = fadd <4 x float> %34, %47
  %50 = fadd <4 x float> %46, %48
  %51 = fadd <4 x float> %50, %49
  %52 = getelementptr inbounds nuw i8, ptr %.060, i64 12
  %53 = icmp ult ptr %52, %9
  br i1 %53, label %58, label %.thread

.thread:                                          ; preds = %11
  %54 = bitcast <4 x float> %51 to <2 x i64>
  %55 = extractelement <2 x i64> %54, i64 0
  store i64 %55, ptr %.060, align 1
  %56 = getelementptr inbounds nuw i8, ptr %.060, i64 8
  %57 = extractelement <4 x float> %51, i64 2
  store float %57, ptr %56, align 1
  ret void

58:                                               ; preds = %11
  %59 = getelementptr inbounds nuw i8, ptr %.058, i64 8
  %60 = getelementptr inbounds float, ptr %.059, i64 %10
  store <4 x float> %51, ptr %.060, align 1
  br label %11
}